; ModuleID = '26/416.c'
source_filename = "26/416.c"
target datalayout = "e-m:e-p270:32:32-p271:32:32-p272:64:64-i64:64-f80:128-n8:16:32:64-S128"
target triple = "x86_64-pc-linux-gnu"

@.str = private unnamed_addr constant [3 x i8] c"%s\00", align 1

; Function Attrs: noinline nounwind uwtable
define dso_local i32 @main() #0 {
  %1 = alloca i32, align 4
  %2 = alloca [102 x i8], align 16
  %3 = alloca i8, align 1
  %4 = alloca i32, align 4
  %5 = alloca i32, align 4
  %6 = alloca i32, align 4
  %7 = alloca i32, align 4
  %8 = alloca i32, align 4
  %9 = alloca i32, align 4
  %10 = alloca i32, align 4
  store i32 0, i32* %1, align 4
  %11 = getelementptr inbounds [102 x i8], [102 x i8]* %2, i64 0, i64 0
  %12 = call i32 (i8*, ...) bitcast (i32 (...)* @gets to i32 (i8*, ...)*)(i8* %11)
  %13 = getelementptr inbounds [102 x i8], [102 x i8]* %2, i64 0, i64 0
  %14 = call i64 @strlen(i8* %13) #3
  %15 = trunc i64 %14 to i32
  store i32 %15, i32* %8, align 4
  store i32 0, i32* %10, align 4
  store i32 0, i32* %6, align 4
  br label %16

16:                                               ; preds = %73, %0
  %17 = load i32, i32* %6, align 4
  %18 = load i32, i32* %8, align 4
  %19 = icmp slt i32 %17, %18
  br i1 %19, label %20, label %76

20:                                               ; preds = %16
  store i32 2, i32* %4, align 4
  br label %21

21:                                               ; preds = %69, %20
  %22 = load i32, i32* %4, align 4
  %23 = load i32, i32* %8, align 4
  %24 = icmp slt i32 %22, %23
  br i1 %24, label %25, label %72

25:                                               ; preds = %21
  %26 = load i32, i32* %4, align 4
  %27 = sub nsw i32 %26, 1
  %28 = sext i32 %27 to i64
  %29 = getelementptr inbounds [102 x i8], [102 x i8]* %2, i64 0, i64 %28
  %30 = load i8, i8* %29, align 1
  %31 = sext i8 %30 to i32
  %32 = icmp eq i32 %31, 32
  br i1 %32, label %33, label %68

33:                                               ; preds = %25
  %34 = load i32, i32* %4, align 4
  %35 = sext i32 %34 to i64
  %36 = getelementptr inbounds [102 x i8], [102 x i8]* %2, i64 0, i64 %35
  %37 = load i8, i8* %36, align 1
  %38 = sext i8 %37 to i32
  %39 = icmp eq i32 %38, 32
  br i1 %39, label %40, label %67

40:                                               ; preds = %33
  %41 = load i32, i32* %4, align 4
  store i32 %41, i32* %5, align 4
  br label %42

42:                                               ; preds = %56, %40
  %43 = load i32, i32* %5, align 4
  %44 = load i32, i32* %8, align 4
  %45 = sub nsw i32 %44, 1
  %46 = icmp slt i32 %43, %45
  br i1 %46, label %47, label %59

47:                                               ; preds = %42
  %48 = load i32, i32* %5, align 4
  %49 = add nsw i32 %48, 1
  %50 = sext i32 %49 to i64
  %51 = getelementptr inbounds [102 x i8], [102 x i8]* %2, i64 0, i64 %50
  %52 = load i8, i8* %51, align 1
  %53 = load i32, i32* %5, align 4
  %54 = sext i32 %53 to i64
  %55 = getelementptr inbounds [102 x i8], [102 x i8]* %2, i64 0, i64 %54
  store i8 %52, i8* %55, align 1
  br label %56

56:                                               ; preds = %47
  %57 = load i32, i32* %5, align 4
  %58 = add nsw i32 %57, 1
  store i32 %58, i32* %5, align 4
  br label %42

59:                                               ; preds = %42
  %60 = load i32, i32* %10, align 4
  %61 = add nsw i32 %60, 1
  store i32 %61, i32* %10, align 4
  %62 = load i32, i32* %8, align 4
  %63 = load i32, i32* %10, align 4
  %64 = sub nsw i32 %62, %63
  %65 = sext i32 %64 to i64
  %66 = getelementptr inbounds [102 x i8], [102 x i8]* %2, i64 0, i64 %65
  store i8 0, i8* %66, align 1
  br label %67

67:                                               ; preds = %59, %33
  br label %68

68:                                               ; preds = %67, %25
  br label %69

69:                                               ; preds = %68
  %70 = load i32, i32* %4, align 4
  %71 = add nsw i32 %70, 1
  store i32 %71, i32* %4, align 4
  br label %21

72:                                               ; preds = %21
  br label %73

73:                                               ; preds = %72
  %74 = load i32, i32* %6, align 4
  %75 = add nsw i32 %74, 1
  store i32 %75, i32* %6, align 4
  br label %16

76:                                               ; preds = %16
  %77 = getelementptr inbounds [102 x i8], [102 x i8]* %2, i64 0, i64 0
  %78 = call i32 (i8*, ...) @printf(i8* getelementptr inbounds ([3 x i8], [3 x i8]* @.str, i64 0, i64 0), i8* %77)
  %79 = call i32 @getchar()
  %80 = load i32, i32* %1, align 4
  ret i32 %80
}

declare dso_local i32 @gets(...) #1

; Function Attrs: nounwind readonly
declare dso_local i64 @strlen(i8*) #2

declare dso_local i32 @printf(i8*, ...) #1

declare dso_local i32 @getchar() #1


!llvm.module.flags = !{!0}
!llvm.ident = !{!1}

!0 = !{i32 1, !"wchar_size", i32 4}
!1 = !{!"clang version 10.0.0-4ubuntu1 "}
